; ModuleID = '10/1005.c'
source_filename = "10/1005.c"
target datalayout = "e-m:e-p270:32:32-p271:32:32-p272:64:64-i64:64-f80:128-n8:16:32:64-S128"
target triple = "x86_64-pc-linux-gnu"

@.str = private unnamed_addr constant [3 x i8] c"%d\00", align 1
@.str.1 = private unnamed_addr constant [4 x i8] c"%d\0A\00", align 1

; Function Attrs: noinline nounwind uwtable
define dso_local i32 @main() #0 {
  %1 = alloca i32, align 4
  %2 = alloca i32, align 4
  %3 = alloca i32, align 4
  %4 = alloca i32, align 4
  %5 = alloca i32, align 4
  %6 = alloca i32*, align 8
  %7 = alloca i32*, align 8
  %8 = alloca i32*, align 8
  %9 = alloca i32, align 4
  %10 = alloca i32, align 4
  %11 = alloca i32, align 4
  store i32 0, i32* %1, align 4
  store i32 1, i32* %3, align 4
  %12 = call i32 (i8*, ...) @__isoc99_scanf(i8* getelementptr inbounds ([3 x i8], [3 x i8]* @.str, i64 0, i64 0), i32* %2)
  %13 = load i32, i32* %2, align 4
  %14 = sext i32 %13 to i64
  %15 = mul i64 %14, 4
  %16 = call noalias i8* @malloc(i64 %15) #3
  %17 = bitcast i8* %16 to i32*
  store i32* %17, i32** %6, align 8
  %18 = load i32, i32* %2, align 4
  %19 = sext i32 %18 to i64
  %20 = mul i64 %19, 4
  %21 = call noalias i8* @malloc(i64 %20) #3
  %22 = bitcast i8* %21 to i32*
  store i32* %22, i32** %7, align 8
  %23 = load i32, i32* %2, align 4
  %24 = sext i32 %23 to i64
  %25 = mul i64 %24, 4
  %26 = call noalias i8* @malloc(i64 %25) #3
  %27 = bitcast i8* %26 to i32*
  store i32* %27, i32** %8, align 8
  store i32 0, i32* %9, align 4
  br label %28

28:                                               ; preds = %38, %0
  %29 = load i32, i32* %9, align 4
  %30 = load i32, i32* %2, align 4
  %31 = icmp slt i32 %29, %30
  br i1 %31, label %32, label %41

32:                                               ; preds = %28
  %33 = load i32*, i32** %6, align 8
  %34 = load i32, i32* %9, align 4
  %35 = sext i32 %34 to i64
  %36 = getelementptr inbounds i32, i32* %33, i64 %35
  %37 = call i32 (i8*, ...) @__isoc99_scanf(i8* getelementptr inbounds ([3 x i8], [3 x i8]* @.str, i64 0, i64 0), i32* %36)
  br label %38

38:                                               ; preds = %32
  %39 = load i32, i32* %9, align 4
  %40 = add nsw i32 %39, 1
  store i32 %40, i32* %9, align 4
  br label %28

41:                                               ; preds = %28
  store i32 0, i32* %10, align 4
  br label %42

42:                                               ; preds = %51, %41
  %43 = load i32, i32* %10, align 4
  %44 = load i32, i32* %2, align 4
  %45 = icmp slt i32 %43, %44
  br i1 %45, label %46, label %54

46:                                               ; preds = %42
  %47 = load i32*, i32** %7, align 8
  %48 = load i32, i32* %10, align 4
  %49 = sext i32 %48 to i64
  %50 = getelementptr inbounds i32, i32* %47, i64 %49
  store i32 -1, i32* %50, align 4
  br label %51

51:                                               ; preds = %46
  %52 = load i32, i32* %10, align 4
  %53 = add nsw i32 %52, 1
  store i32 %53, i32* %10, align 4
  br label %42

54:                                               ; preds = %42
  %55 = load i32*, i32** %6, align 8
  %56 = getelementptr inbounds i32, i32* %55, i64 0
  %57 = load i32, i32* %56, align 4
  %58 = load i32*, i32** %7, align 8
  %59 = getelementptr inbounds i32, i32* %58, i64 1
  store i32 %57, i32* %59, align 4
  store i32 0, i32* %11, align 4
  br label %60

60:                                               ; preds = %89, %54
  %61 = load i32, i32* %11, align 4
  %62 = load i32, i32* %2, align 4
  %63 = icmp slt i32 %61, %62
  br i1 %63, label %64, label %92

64:                                               ; preds = %60
  store i32 0, i32* %4, align 4
  %65 = load i32*, i32** %7, align 8
  %66 = load i32, i32* %3, align 4
  %67 = load i32*, i32** %6, align 8
  %68 = load i32, i32* %11, align 4
  %69 = sext i32 %68 to i64
  %70 = getelementptr inbounds i32, i32* %67, i64 %69
  %71 = load i32, i32* %70, align 4
  %72 = call i32 @search(i32* %65, i32 %66, i32 %71)
  store i32 %72, i32* %5, align 4
  %73 = load i32, i32* %5, align 4
  %74 = load i32, i32* %3, align 4
  %75 = icmp sgt i32 %73, %74
  br i1 %75, label %76, label %79

76:                                               ; preds = %64
  %77 = load i32, i32* %3, align 4
  %78 = add nsw i32 %77, 1
  store i32 %78, i32* %3, align 4
  br label %79

79:                                               ; preds = %76, %64
  %80 = load i32*, i32** %6, align 8
  %81 = load i32, i32* %11, align 4
  %82 = sext i32 %81 to i64
  %83 = getelementptr inbounds i32, i32* %80, i64 %82
  %84 = load i32, i32* %83, align 4
  %85 = load i32*, i32** %7, align 8
  %86 = load i32, i32* %5, align 4
  %87 = sext i32 %86 to i64
  %88 = getelementptr inbounds i32, i32* %85, i64 %87
  store i32 %84, i32* %88, align 4
  br label %89

89:                                               ; preds = %79
  %90 = load i32, i32* %11, align 4
  %91 = add nsw i32 %90, 1
  store i32 %91, i32* %11, align 4
  br label %60

92:                                               ; preds = %60
  %93 = load i32, i32* %3, align 4
  %94 = call i32 (i8*, ...) @printf(i8* getelementptr inbounds ([4 x i8], [4 x i8]* @.str.1, i64 0, i64 0), i32 %93)
  ret i32 0
}

declare dso_local i32 @__isoc99_scanf(i8*, ...) #1

; Function Attrs: nounwind
declare dso_local noalias i8* @malloc(i64) #2

; Function Attrs: noinline nounwind uwtable
define dso_local i32 @search(i32* %0, i32 %1, i32 %2) #0 {
  %4 = alloca i32, align 4
  %5 = alloca i32*, align 8
  %6 = alloca i32, align 4
  %7 = alloca i32, align 4
  %8 = alloca i32, align 4
  %9 = alloca i32, align 4
  %10 = alloca i32, align 4
  store i32* %0, i32** %5, align 8
  store i32 %1, i32* %6, align 4
  store i32 %2, i32* %7, align 4
  store i32 1, i32* %8, align 4
  %11 = load i32, i32* %6, align 4
  store i32 %11, i32* %9, align 4
  br label %12

12:                                               ; preds = %44, %3
  %13 = load i32, i32* %8, align 4
  %14 = load i32, i32* %9, align 4
  %15 = icmp slt i32 %13, %14
  br i1 %15, label %16, label %45

16:                                               ; preds = %12
  %17 = load i32, i32* %8, align 4
  %18 = load i32, i32* %9, align 4
  %19 = add nsw i32 %17, %18
  %20 = sdiv i32 %19, 2
  store i32 %20, i32* %10, align 4
  %21 = load i32*, i32** %5, align 8
  %22 = load i32, i32* %10, align 4
  %23 = sext i32 %22 to i64
  %24 = getelementptr inbounds i32, i32* %21, i64 %23
  %25 = load i32, i32* %24, align 4
  %26 = load i32, i32* %7, align 4
  %27 = icmp eq i32 %25, %26
  br i1 %27, label %28, label %31

28:                                               ; preds = %16
  %29 = load i32, i32* %10, align 4
  %30 = add nsw i32 %29, 1
  store i32 %30, i32* %4, align 4
  br label %58

31:                                               ; preds = %16
  %32 = load i32*, i32** %5, align 8
  %33 = load i32, i32* %10, align 4
  %34 = sext i32 %33 to i64
  %35 = getelementptr inbounds i32, i32* %32, i64 %34
  %36 = load i32, i32* %35, align 4
  %37 = load i32, i32* %7, align 4
  %38 = icmp sgt i32 %36, %37
  br i1 %38, label %39, label %42

39:                                               ; preds = %31
  %40 = load i32, i32* %10, align 4
  %41 = add nsw i32 %40, 1
  store i32 %41, i32* %8, align 4
  br label %44

42:                                               ; preds = %31
  %43 = load i32, i32* %10, align 4
  store i32 %43, i32* %9, align 4
  br label %44

44:                                               ; preds = %42, %39
  br label %12

45:                                               ; preds = %12
  %46 = load i32*, i32** %5, align 8
  %47 = load i32, i32* %8, align 4
  %48 = sext i32 %47 to i64
  %49 = getelementptr inbounds i32, i32* %46, i64 %48
  %50 = load i32, i32* %49, align 4
  %51 = load i32, i32* %7, align 4
  %52 = icmp sle i32 %50, %51
  br i1 %52, label %53, label %55

53:                                               ; preds = %45
  %54 = load i32, i32* %8, align 4
  store i32 %54, i32* %4, align 4
  br label %58

55:                                               ; preds = %45
  %56 = load i32, i32* %8, align 4
  %57 = add nsw i32 %56, 1
  store i32 %57, i32* %4, align 4
  br label %58

58:                                               ; preds = %55, %53, %28
  %59 = load i32, i32* %4, align 4
  ret i32 %59
}

declare dso_local i32 @printf(i8*, ...) #1


!llvm.module.flags = !{!0}
!llvm.ident = !{!1}

!0 = !{i32 1, !"wchar_size", i32 4}
!1 = !{!"clang version 10.0.0-4ubuntu1 "}
